target datalayout = "e-m:e-p270:32:32-p271:32:32-p272:64:64-i64:64-i128:128-f80:128-n8:16:32:64-S128"
target triple = "x86_64-pc-linux-gnu"

%"class.boost::urls::url_view_base" = type { [8 x i8], %"struct.boost::urls::detail::url_impl", ptr }
%"struct.boost::urls::detail::url_impl" = type <{ ptr, [8 x i64], [7 x i64], i64, i64, [16 x i8], i16, [2 x i8], i32, i16, i8, [5 x i8] }>

; Function Attrs: mustprogress nounwind uwtable
define linkonce_odr hidden noundef zeroext i1 @_ZNK5boost4urls13url_view_base16is_path_absoluteEv(ptr noundef nonnull align 8 dereferenceable(192) %0) #2 comdat align 2 {
  %2 = alloca ptr, align 8
  store ptr %0, ptr %2, align 8, !tbaa !7
  %3 = load ptr, ptr %2, align 8
  %4 = getelementptr inbounds nuw %"class.boost::urls::url_view_base", ptr %3, i32 0, i32 2
  %5 = load ptr, ptr %4, align 8, !tbaa !33
  %6 = call noundef i64 @_ZNK5boost4urls6detail8url_impl3lenEi(ptr noundef nonnull align 8 dereferenceable(171) %5, i32 noundef 4) #9
  %7 = icmp ugt i64 %6, 0
  br i1 %7, label %8, label %20

8:                                                ; preds = %1
  %9 = getelementptr inbounds nuw %"class.boost::urls::url_view_base", ptr %3, i32 0, i32 2
  %10 = load ptr, ptr %9, align 8, !tbaa !33
  %11 = getelementptr inbounds nuw %"struct.boost::urls::detail::url_impl", ptr %10, i32 0, i32 0
  %12 = load ptr, ptr %11, align 8, !tbaa !36
  %13 = getelementptr inbounds nuw %"class.boost::urls::url_view_base", ptr %3, i32 0, i32 2
  %14 = load ptr, ptr %13, align 8, !tbaa !33
  %15 = call noundef i64 @_ZNK5boost4urls6detail8url_impl6offsetEi(ptr noundef nonnull align 8 dereferenceable(171) %14, i32 noundef 4) #9
  %16 = getelementptr inbounds nuw i8, ptr %12, i64 %15
  %17 = load i8, ptr %16, align 1, !tbaa !32
  %18 = sext i8 %17 to i32
  %19 = icmp eq i32 %18, 47
  br label %20

20:                                               ; preds = %8, %1
  %21 = phi i1 [ false, %1 ], [ %19, %8 ]
  ret i1 %21
}

; Function Attrs: mustprogress uwtable
define noundef ptr @_ZN5boost4urls8url_base11resize_implEimRNS1_4op_tE(ptr noundef nonnull align 8 dereferenceable(216) %0, i32 noundef %1, i64 noundef %2, ptr noundef nonnull align 8 dereferenceable(32) %3) #5 align 2 {
  %5 = alloca ptr, align 8
  %6 = alloca i32, align 4
  %7 = alloca i64, align 8
  %8 = alloca ptr, align 8
  store ptr %0, ptr %5, align 8, !tbaa !7
  store i32 %1, ptr %6, align 4, !tbaa !3
  store i64 %2, ptr %7, align 8, !tbaa !21
  store ptr %3, ptr %8, align 8, !tbaa !7
  %9 = load ptr, ptr %5, align 8
  %10 = load i32, ptr %6, align 4, !tbaa !3
  %11 = load i32, ptr %6, align 4, !tbaa !3
  %12 = add nsw i32 %11, 1
  %13 = load i64, ptr %7, align 8, !tbaa !21
  %14 = load ptr, ptr %8, align 8, !tbaa !7
  %15 = call noundef ptr @_ZN5boost4urls8url_base11resize_implEiimRNS1_4op_tE(ptr noundef nonnull align 8 dereferenceable(216) %9, i32 noundef %10, i32 noundef %12, i64 noundef %13, ptr noundef nonnull align 8 dereferenceable(32) %14)
  ret ptr %15
}

; Function Attrs: mustprogress nounwind uwtable
define void @_ZNK5boost4urls8url_base16check_invariantsEv(ptr noundef nonnull align 8 dereferenceable(216) %0) #2 align 2 {
  %2 = alloca ptr, align 8
  store ptr %0, ptr %2, align 8, !tbaa !7
  ret void
}

; Function Attrs: mustprogress uwtable
define noundef ptr @_ZN5boost4urls8url_base13set_port_implEmRNS1_4op_tE(ptr noundef nonnull align 8 dereferenceable(216) %0, i64 noundef %1, ptr noundef nonnull align 8 dereferenceable(32) %2) #5 align 2 {
  %4 = alloca ptr, align 8
  %5 = alloca ptr, align 8
  %6 = alloca i64, align 8
  %7 = alloca ptr, align 8
  %8 = alloca ptr, align 8
  %9 = alloca i8, align 1
  %10 = alloca ptr, align 8
  store ptr %0, ptr %5, align 8, !tbaa !7
  store i64 %1, ptr %6, align 8, !tbaa !21
  store ptr %2, ptr %7, align 8, !tbaa !7
  %11 = load ptr, ptr %5, align 8
  call void @_ZNK5boost4urls8url_base16check_invariantsEv(ptr noundef nonnull align 8 dereferenceable(216) %11) #9
  %12 = getelementptr inbounds i8, ptr %11, i64 8
  %13 = getelementptr inbounds nuw %"class.boost::urls::url_view_base", ptr %12, i32 0, i32 1
  %14 = call noundef i64 @_ZNK5boost4urls6detail8url_impl3lenEi(ptr noundef nonnull align 8 dereferenceable(171) %13, i32 noundef 0) #9
  %15 = icmp ne i64 %14, 0
  br i1 %15, label %16, label %25

16:                                               ; preds = %3
  call void @llvm.lifetime.start.p0(i64 8, ptr %8) #9
  %17 = load i64, ptr %6, align 8, !tbaa !21
  %18 = add i64 %17, 1
  %19 = load ptr, ptr %7, align 8, !tbaa !7
  %20 = call noundef ptr @_ZN5boost4urls8url_base11resize_implEimRNS1_4op_tE(ptr noundef nonnull align 8 dereferenceable(216) %11, i32 noundef 3, i64 noundef %18, ptr noundef nonnull align 8 dereferenceable(32) %19)
  store ptr %20, ptr %8, align 8, !tbaa !7
  %21 = load ptr, ptr %8, align 8, !tbaa !7
  %22 = getelementptr inbounds i8, ptr %21, i64 0
  store i8 58, ptr %22, align 1, !tbaa !32
  call void @_ZNK5boost4urls8url_base16check_invariantsEv(ptr noundef nonnull align 8 dereferenceable(216) %11) #9
  %23 = load ptr, ptr %8, align 8, !tbaa !7
  %24 = getelementptr inbounds i8, ptr %23, i64 1
  store ptr %24, ptr %4, align 8
  call void @llvm.lifetime.end.p0(i64 8, ptr %8) #9
  br label %76

25:                                               ; preds = %3
  call void @llvm.lifetime.start.p0(i64 1, ptr %9) #9
  %26 = getelementptr inbounds i8, ptr %11, i64 8
  %27 = call noundef zeroext i1 @_ZNK5boost4urls13url_view_base16is_path_absoluteEv(ptr noundef nonnull align 8 dereferenceable(192) %26) #9
  br i1 %27, label %33, label %28

28:                                               ; preds = %25
  %29 = getelementptr inbounds i8, ptr %11, i64 8
  %30 = getelementptr inbounds nuw %"class.boost::urls::url_view_base", ptr %29, i32 0, i32 1
  %31 = call noundef i64 @_ZNK5boost4urls6detail8url_impl3lenEi(ptr noundef nonnull align 8 dereferenceable(171) %30, i32 noundef 4) #9
  %32 = icmp ne i64 %31, 0
  br label %33

33:                                               ; preds = %28, %25
  %34 = phi i1 [ false, %25 ], [ %32, %28 ]
  %35 = zext i1 %34 to i8
  store i8 %35, ptr %9, align 1, !tbaa !42
  call void @llvm.lifetime.start.p0(i64 8, ptr %10) #9
  %36 = load i64, ptr %6, align 8, !tbaa !21
  %37 = add i64 3, %36
  %38 = load i8, ptr %9, align 1, !tbaa !42, !range !44, !noundef !45
  %39 = trunc i8 %38 to i1
  %40 = zext i1 %39 to i64
  %41 = add i64 %37, %40
  %42 = load ptr, ptr %7, align 8, !tbaa !7
  %43 = call noundef ptr @_ZN5boost4urls8url_base11resize_implEimRNS1_4op_tE(ptr noundef nonnull align 8 dereferenceable(216) %11, i32 noundef 0, i64 noundef %41, ptr noundef nonnull align 8 dereferenceable(32) %42)
  store ptr %43, ptr %10, align 8, !tbaa !7
  %44 = getelementptr inbounds i8, ptr %11, i64 8
  %45 = getelementptr inbounds nuw %"class.boost::urls::url_view_base", ptr %44, i32 0, i32 1
  call void @_ZN5boost4urls6detail8url_impl5splitEim(ptr noundef nonnull align 8 dereferenceable(171) %45, i32 noundef 0, i64 noundef 2) #9
  %46 = getelementptr inbounds i8, ptr %11, i64 8
  %47 = getelementptr inbounds nuw %"class.boost::urls::url_view_base", ptr %46, i32 0, i32 1
  call void @_ZN5boost4urls6detail8url_impl5splitEim(ptr noundef nonnull align 8 dereferenceable(171) %47, i32 noundef 1, i64 noundef 0) #9
  %48 = getelementptr inbounds i8, ptr %11, i64 8
  %49 = getelementptr inbounds nuw %"class.boost::urls::url_view_base", ptr %48, i32 0, i32 1
  call void @_ZN5boost4urls6detail8url_impl5splitEim(ptr noundef nonnull align 8 dereferenceable(171) %49, i32 noundef 2, i64 noundef 0) #9
  %50 = load ptr, ptr %10, align 8, !tbaa !7
  %51 = getelementptr inbounds i8, ptr %50, i64 0
  store i8 47, ptr %51, align 1, !tbaa !32
  %52 = load ptr, ptr %10, align 8, !tbaa !7
  %53 = getelementptr inbounds i8, ptr %52, i64 1
  store i8 47, ptr %53, align 1, !tbaa !32
  %54 = load ptr, ptr %10, align 8, !tbaa !7
  %55 = getelementptr inbounds i8, ptr %54, i64 2
  store i8 58, ptr %55, align 1, !tbaa !32
  %56 = load i8, ptr %9, align 1, !tbaa !42, !range !44, !noundef !45
  %57 = trunc i8 %56 to i1
  br i1 %57, label %58, label %73

58:                                               ; preds = %33
  %59 = getelementptr inbounds i8, ptr %11, i64 8
  %60 = getelementptr inbounds nuw %"class.boost::urls::url_view_base", ptr %59, i32 0, i32 1
  %61 = load i64, ptr %6, align 8, !tbaa !21
  %62 = add i64 %61, 1
  call void @_ZN5boost4urls6detail8url_impl5splitEim(ptr noundef nonnull align 8 dereferenceable(171) %60, i32 noundef 3, i64 noundef %62) #9
  %63 = load ptr, ptr %10, align 8, !tbaa !7
  %64 = load i64, ptr %6, align 8, !tbaa !21
  %65 = add i64 %64, 3
  %66 = getelementptr inbounds nuw i8, ptr %63, i64 %65
  store i8 47, ptr %66, align 1, !tbaa !32
  %67 = getelementptr inbounds i8, ptr %11, i64 8
  %68 = getelementptr inbounds nuw %"class.boost::urls::url_view_base", ptr %67, i32 0, i32 1
  %69 = getelementptr inbounds nuw %"struct.boost::urls::detail::url_impl", ptr %68, i32 0, i32 2
  %70 = getelementptr inbounds [7 x i64], ptr %69, i64 0, i64 4
  %71 = load i64, ptr %70, align 8, !tbaa !21
  %72 = add i64 %71, 1
  store i64 %72, ptr %70, align 8, !tbaa !21
  br label %73

73:                                               ; preds = %58, %33
  call void @_ZNK5boost4urls8url_base16check_invariantsEv(ptr noundef nonnull align 8 dereferenceable(216) %11) #9
  %74 = load ptr, ptr %10, align 8, !tbaa !7
  %75 = getelementptr inbounds i8, ptr %74, i64 3
  store ptr %75, ptr %4, align 8
  call void @llvm.lifetime.end.p0(i64 8, ptr %10) #9
  call void @llvm.lifetime.end.p0(i64 1, ptr %9) #9
  br label %76

76:                                               ; preds = %73, %16
  %77 = load ptr, ptr %4, align 8
  ret ptr %77
}