; Function Attrs: mustprogress uwtable
define noundef nonnull ptr @_ZN5boost4urls8url_base13set_port_implEmRNS1_4op_tE(ptr noundef nonnull align 8 dereferenceable(216) %0, i64 noundef %1, ptr noundef nonnull align 8 dereferenceable(32) %2) local_unnamed_addr #10 align 2 {
  %4 = getelementptr inbounds i8, ptr %0, i64 16
  %5 = tail call noundef i64 @_ZNK5boost4urls6detail8url_impl3lenEi(ptr noundef nonnull align 8 dereferenceable(171) %4, i32 noundef 0) #30
  %.not = icmp eq i64 %5, 0
  br i1 %.not, label %10, label %6

6:                                                ; preds = %3
  %7 = add i64 %1, 1
  %8 = tail call noundef ptr @_ZN5boost4urls8url_base11resize_implEiimRNS1_4op_tE(ptr noundef nonnull align 8 dereferenceable(216) %0, i32 noundef 3, i32 noundef 4, i64 noundef %7, ptr noundef nonnull align 8 dereferenceable(32) %2)
  store i8 58, ptr %8, align 1, !tbaa !25
  %9 = getelementptr inbounds i8, ptr %8, i64 1
  br label %38

10:                                               ; preds = %3
  %11 = getelementptr inbounds i8, ptr %0, i64 192
  %12 = load ptr, ptr %11, align 8, !tbaa !24
  %13 = tail call noundef i64 @_ZNK5boost4urls6detail8url_impl3lenEi(ptr noundef nonnull align 8 dereferenceable(171) %12, i32 noundef 4) #30
  %.not.i = icmp eq i64 %13, 0
  br i1 %.not.i, label %_ZNK5boost4urls13url_view_base16is_path_absoluteEv.exit.thread, label %_ZNK5boost4urls13url_view_base16is_path_absoluteEv.exit

_ZNK5boost4urls13url_view_base16is_path_absoluteEv.exit: ; preds = %10
  %14 = load ptr, ptr %11, align 8, !tbaa !24
  %15 = load ptr, ptr %14, align 8, !tbaa !28
  %16 = tail call noundef i64 @_ZNK5boost4urls6detail8url_impl6offsetEi(ptr noundef nonnull align 8 dereferenceable(171) %14, i32 noundef 4) #30
  %17 = getelementptr inbounds nuw i8, ptr %15, i64 %16
  %18 = load i8, ptr %17, align 1, !tbaa !25
  %19 = icmp eq i8 %18, 47
  br i1 %19, label %22, label %_ZNK5boost4urls13url_view_base16is_path_absoluteEv.exit.thread

_ZNK5boost4urls13url_view_base16is_path_absoluteEv.exit.thread: ; preds = %10, %_ZNK5boost4urls13url_view_base16is_path_absoluteEv.exit
  %20 = tail call noundef i64 @_ZNK5boost4urls6detail8url_impl3lenEi(ptr noundef nonnull align 8 dereferenceable(171) %4, i32 noundef 4) #30
  %21 = icmp ne i64 %20, 0
  br label %22

22:                                               ; preds = %_ZNK5boost4urls13url_view_base16is_path_absoluteEv.exit.thread, %_ZNK5boost4urls13url_view_base16is_path_absoluteEv.exit
  %23 = phi i1 [ false, %_ZNK5boost4urls13url_view_base16is_path_absoluteEv.exit ], [ %21, %_ZNK5boost4urls13url_view_base16is_path_absoluteEv.exit.thread ]
  %24 = add i64 %1, 3
  %25 = zext i1 %23 to i64
  %26 = add i64 %24, %25
  %27 = tail call noundef ptr @_ZN5boost4urls8url_base11resize_implEiimRNS1_4op_tE(ptr noundef nonnull align 8 dereferenceable(216) %0, i32 noundef 0, i32 noundef 1, i64 noundef %26, ptr noundef nonnull align 8 dereferenceable(32) %2)
  tail call void @_ZN5boost4urls6detail8url_impl5splitEim(ptr noundef nonnull align 8 dereferenceable(171) %4, i32 noundef 0, i64 noundef 2) #30
  tail call void @_ZN5boost4urls6detail8url_impl5splitEim(ptr noundef nonnull align 8 dereferenceable(171) %4, i32 noundef 1, i64 noundef 0) #30
  tail call void @_ZN5boost4urls6detail8url_impl5splitEim(ptr noundef nonnull align 8 dereferenceable(171) %4, i32 noundef 2, i64 noundef 0) #30
  store i8 47, ptr %27, align 1, !tbaa !25
  %28 = getelementptr inbounds i8, ptr %27, i64 1
  store i8 47, ptr %28, align 1, !tbaa !25
  %29 = getelementptr inbounds i8, ptr %27, i64 2
  store i8 58, ptr %29, align 1, !tbaa !25
  br i1 %23, label %30, label %36

30:                                               ; preds = %22
  %31 = add i64 %1, 1
  tail call void @_ZN5boost4urls6detail8url_impl5splitEim(ptr noundef nonnull align 8 dereferenceable(171) %4, i32 noundef 3, i64 noundef %31) #30
  %32 = getelementptr inbounds nuw i8, ptr %27, i64 %24
  store i8 47, ptr %32, align 1, !tbaa !25
  %33 = getelementptr inbounds i8, ptr %0, i64 120
  %34 = load i64, ptr %33, align 8, !tbaa !14
  %35 = add i64 %34, 1
  store i64 %35, ptr %33, align 8, !tbaa !14
  br label %36

36:                                               ; preds = %30, %22
  %37 = getelementptr inbounds i8, ptr %27, i64 3
  br label %38

38:                                               ; preds = %36, %6
  %.0 = phi ptr [ %9, %6 ], [ %37, %36 ]
  ret ptr %.0
}